cnumpy.core.multiarray
_reconstruct
p1
(cnumpy
ndarray
p2
(I0
tS'b'
tRp3
(I1
(I2
tcnumpy
dtype
p4
(S'O8'
I0
I1
tRp5
(I3
S'|'
NNNI-1
I-1
I63
tbI00
(lp6
(dp7
S'y2'
p8
I2000
sS'value'
p9
I500
sS'y1'
p10
I1000
sS'x2'
p11
I1600
sS'x1'
p12
I600
sS'z1'
p13
I800
sS'z2'
p14
I1800
sa(dp15
g8
I2000
sg9
I1000
sg10
I1000
sg11
I4400
sg12
I3400
sg13
I1600
sg14
I2600
satb.