cnumpy.core.multiarray
_reconstruct
p1
(cnumpy
ndarray
p2
(I0
tS'b'
tRp3
(I1
(I2
tcnumpy
dtype
p4
(S'O8'
I0
I1
tRp5
(I3
S'|'
NNNI-1
I-1
I63
tbI00
(lp6
(dp7
S'x2'
p8
cnumpy.core.multiarray
scalar
p9
(g4
(S'f8'
I0
I1
tRp10
(I3
S'<'
NNNI-1
I-1
I0
tbS'VUUUU\xb5\x91@'
tRp11
sS'x1'
p12
g9
(g10
S'\xab\xaa\xaa\xaa\xaa\xaa\x90@'
tRp13
sS'value'
p14
I500
sS'y1'
p15
g9
(g10
S'\xab\xaa\xaa\xaa\xaa\xea\x96@'
tRp16
sS'y2'
p17
g9
(g10
S'VUUUU\xf5\x97@'
tRp18
sS'z1'
p19
g9
(g10
S'\xab\xaa\xaa\xaa\xaa\xca\x93@'
tRp20
sS'z2'
p21
g9
(g10
S'VUUUU\xd5\x94@'
tRp22
sa(dp23
g8
g9
(g10
S'\xab\xaa\xaa\xaa\xaa\xba\xae@'
tRp24
sg12
g9
(g10
S'VUUUU5\xae@'
tRp25
sg14
I1000
sg15
g9
(g10
S'\xab\xaa\xaa\xaa\xaa\xea\x96@'
tRp26
sg17
g9
(g10
S'VUUUU\xf5\x97@'
tRp27
sg19
g9
(g10
S'VUUUU%\xa0@'
tRp28
sg21
g9
(g10
S'\xab\xaa\xaa\xaa\xaa\xaa\xa0@'
tRp29
satb.