cnumpy.core.multiarray
_reconstruct
p0
(cnumpy
ndarray
p1
(I0
tp2
S'b'
p3
tp4
Rp5
(I1
(I2
tp6
cnumpy
dtype
p7
(S'O8'
p8
I0
I1
tp9
Rp10
(I3
S'|'
p11
NNNI-1
I-1
I63
tp12
bI00
(lp13
(dp14
S'y2'
p15
I35000
sS'value'
p16
I300
sS'y1'
p17
I15000
sS'x2'
p18
I85000
sS'x1'
p19
I15000
sS'z1'
p20
I0
sS'z2'
p21
I8000
sa(dp22
g15
I42000
sg16
I400
sg17
I35000
sg18
I55000
sg19
I25000
sg20
I0
sg21
I6000
satp23
b.